target datalayout = "e-m:e-p270:32:32-p271:32:32-p272:64:64-i64:64-i128:128-f80:128-n8:16:32:64-S128"
target triple = "x86_64-pc-linux-gnu"

%struct.SDL_AtomicInt = type { i32 }
%struct.SDL_error = type { i32, ptr, i64, ptr, ptr }
%struct.SDL_TLSData = type { i32, [1 x %struct.anon] }
%struct.anon = type { ptr, ptr }

@.str = private unnamed_addr constant [26 x i8] c"Parameter '%s' is invalid\00", align 1
@.str.1 = private unnamed_addr constant [3 x i8] c"id\00", align 1
@SDL_GetErrBuf.tls_errbuf = internal global %struct.SDL_AtomicInt zeroinitializer, align 4
@SDL_GetStaticErrBuf.SDL_global_error = internal global %struct.SDL_error zeroinitializer, align 8
@SDL_GetStaticErrBuf.SDL_global_error_str = internal global [128 x i8] zeroinitializer, align 16

; Function Attrs: nounwind uwtable
define internal ptr @SDL_GetStaticErrBuf() #0 {
  store ptr @SDL_GetStaticErrBuf.SDL_global_error_str, ptr getelementptr inbounds nuw (%struct.SDL_error, ptr @SDL_GetStaticErrBuf.SDL_global_error, i32 0, i32 1), align 8
  store i64 128, ptr getelementptr inbounds nuw (%struct.SDL_error, ptr @SDL_GetStaticErrBuf.SDL_global_error, i32 0, i32 2), align 8
  ret ptr @SDL_GetStaticErrBuf.SDL_global_error
}

; Function Attrs: nounwind uwtable
define hidden ptr @SDL_GetTLS_REAL(ptr noundef %0) #0 {
  %2 = alloca ptr, align 8
  %3 = alloca ptr, align 8
  %4 = alloca ptr, align 8
  %5 = alloca i32, align 4
  %6 = alloca i32, align 4
  store ptr %0, ptr %3, align 8
  call void @llvm.lifetime.start.p0(i64 8, ptr %4) #6
  call void @llvm.lifetime.start.p0(i64 4, ptr %5) #6
  %7 = load ptr, ptr %3, align 8
  %8 = icmp eq ptr %7, null
  br i1 %8, label %9, label %11

9:                                                ; preds = %1
  %10 = call zeroext i1 (ptr, ...) @SDL_SetError_REAL(ptr noundef @.str, ptr noundef @.str.1)
  store ptr null, ptr %2, align 8
  store i32 1, ptr %6, align 4
  br label %36

11:                                               ; preds = %1
  %12 = load ptr, ptr %3, align 8
  %13 = call i32 @SDL_GetAtomicInt_REAL(ptr noundef %12)
  %14 = sub nsw i32 %13, 1
  store i32 %14, ptr %5, align 4
  %15 = call ptr @SDL_SYS_GetTLSData()
  store ptr %15, ptr %4, align 8
  %16 = load ptr, ptr %4, align 8
  %17 = icmp ne ptr %16, null
  br i1 %17, label %18, label %27

18:                                               ; preds = %11
  %19 = load i32, ptr %5, align 4
  %20 = icmp slt i32 %19, 0
  br i1 %20, label %27, label %21

21:                                               ; preds = %18
  %22 = load i32, ptr %5, align 4
  %23 = load ptr, ptr %4, align 8
  %24 = getelementptr inbounds nuw %struct.SDL_TLSData, ptr %23, i32 0, i32 0
  %25 = load i32, ptr %24, align 8
  %26 = icmp sge i32 %22, %25
  br i1 %26, label %27, label %28

27:                                               ; preds = %21, %18, %11
  store ptr null, ptr %2, align 8
  store i32 1, ptr %6, align 4
  br label %36

28:                                               ; preds = %21
  %29 = load ptr, ptr %4, align 8
  %30 = getelementptr inbounds nuw %struct.SDL_TLSData, ptr %29, i32 0, i32 1
  %31 = load i32, ptr %5, align 4
  %32 = sext i32 %31 to i64
  %33 = getelementptr inbounds [1 x %struct.anon], ptr %30, i64 0, i64 %32
  %34 = getelementptr inbounds nuw %struct.anon, ptr %33, i32 0, i32 0
  %35 = load ptr, ptr %34, align 8
  store ptr %35, ptr %2, align 8
  store i32 1, ptr %6, align 4
  br label %36

36:                                               ; preds = %28, %27, %9
  call void @llvm.lifetime.end.p0(i64 4, ptr %5) #6
  call void @llvm.lifetime.end.p0(i64 8, ptr %4) #6
  %37 = load ptr, ptr %2, align 8
  ret ptr %37
}

; Function Attrs: nounwind uwtable
define hidden ptr @SDL_GetErrBuf(i1 noundef zeroext %0) #0 {
  %2 = alloca ptr, align 8
  %3 = alloca i8, align 1
  %4 = alloca ptr, align 8
  %5 = alloca i32, align 4
  %6 = alloca ptr, align 8
  %7 = alloca ptr, align 8
  %8 = zext i1 %0 to i8
  store i8 %8, ptr %3, align 1
  call void @llvm.lifetime.start.p0(i64 8, ptr %4) #6
  %9 = call ptr @SDL_GetTLS_REAL(ptr noundef @SDL_GetErrBuf.tls_errbuf)
  store ptr %9, ptr %4, align 8
  %10 = load ptr, ptr %4, align 8
  %11 = icmp ne ptr %10, null
  br i1 %11, label %36, label %12

12:                                               ; preds = %1
  %13 = load i8, ptr %3, align 1, !range !8, !noundef !9
  %14 = trunc i8 %13 to i1
  br i1 %14, label %16, label %15

15:                                               ; preds = %12
  store ptr null, ptr %2, align 8
  store i32 1, ptr %5, align 4
  br label %38

16:                                               ; preds = %12
  call void @llvm.lifetime.start.p0(i64 8, ptr %6) #6
  call void @llvm.lifetime.start.p0(i64 8, ptr %7) #6
  call void @SDL_GetOriginalMemoryFunctions_REAL(ptr noundef null, ptr noundef null, ptr noundef %6, ptr noundef %7)
  %17 = load ptr, ptr %6, align 8
  %18 = call ptr %17(ptr noundef null, i64 noundef 40)
  store ptr %18, ptr %4, align 8
  %19 = load ptr, ptr %4, align 8
  %20 = icmp ne ptr %19, null
  br i1 %20, label %23, label %21

21:                                               ; preds = %16
  %22 = call ptr @SDL_GetStaticErrBuf()
  store ptr %22, ptr %2, align 8
  store i32 1, ptr %5, align 4
  br label %33

23:                                               ; preds = %16
  %24 = load ptr, ptr %4, align 8
  call void @llvm.memset.p0.i64(ptr align 8 %24, i8 0, i64 40, i1 false)
  %25 = load ptr, ptr %6, align 8
  %26 = load ptr, ptr %4, align 8
  %27 = getelementptr inbounds nuw %struct.SDL_error, ptr %26, i32 0, i32 3
  store ptr %25, ptr %27, align 8
  %28 = load ptr, ptr %7, align 8
  %29 = load ptr, ptr %4, align 8
  %30 = getelementptr inbounds nuw %struct.SDL_error, ptr %29, i32 0, i32 4
  store ptr %28, ptr %30, align 8
  %31 = load ptr, ptr %4, align 8
  %32 = call zeroext i1 @SDL_SetTLS_REAL(ptr noundef @SDL_GetErrBuf.tls_errbuf, ptr noundef %31, ptr noundef @SDL_FreeErrBuf)
  store i32 0, ptr %5, align 4
  br label %33

33:                                               ; preds = %23, %21
  call void @llvm.lifetime.end.p0(i64 8, ptr %7) #6
  call void @llvm.lifetime.end.p0(i64 8, ptr %6) #6
  %34 = load i32, ptr %5, align 4
  switch i32 %34, label %38 [
    i32 0, label %35
  ]

35:                                               ; preds = %33
  br label %36

36:                                               ; preds = %35, %1
  %37 = load ptr, ptr %4, align 8
  store ptr %37, ptr %2, align 8
  store i32 1, ptr %5, align 4
  br label %38

38:                                               ; preds = %36, %33, %15
  call void @llvm.lifetime.end.p0(i64 8, ptr %4) #6
  %39 = load ptr, ptr %2, align 8
  ret ptr %39
}