; Function Attrs: nounwind uwtable
define hidden ptr @SDL_GetErrBuf(i1 noundef zeroext %0) local_unnamed_addr #0 {
  %2 = alloca ptr, align 8
  %3 = alloca ptr, align 8
  %4 = tail call i32 @SDL_GetAtomicInt_REAL(ptr noundef nonnull @SDL_GetErrBuf.tls_errbuf) #6
  %5 = add nsw i32 %4, -1
  %6 = tail call ptr @SDL_SYS_GetTLSData() #6
  %7 = icmp eq ptr %6, null
  %8 = icmp slt i32 %4, 1
  %or.cond.i = select i1 %7, i1 true, i1 %8
  br i1 %or.cond.i, label %SDL_GetTLS_REAL.exit, label %9

9:                                                ; preds = %1
  %10 = load i32, ptr %6, align 8
  %.not.not.i = icmp sgt i32 %4, %10
  br i1 %.not.not.i, label %SDL_GetTLS_REAL.exit, label %11

11:                                               ; preds = %9
  %12 = getelementptr inbounds nuw i8, ptr %6, i64 8
  %13 = zext nneg i32 %5 to i64
  %14 = getelementptr inbounds nuw [1 x %struct.anon], ptr %12, i64 0, i64 %13
  %15 = load ptr, ptr %14, align 8
  br label %SDL_GetTLS_REAL.exit

SDL_GetTLS_REAL.exit:                             ; preds = %1, %9, %11
  %.0.i = phi ptr [ %15, %11 ], [ null, %9 ], [ null, %1 ]
  %.not = icmp eq ptr %.0.i, null
  %brmerge.not = and i1 %0, %.not
  br i1 %brmerge.not, label %16, label %27

16:                                               ; preds = %SDL_GetTLS_REAL.exit
  call void @llvm.lifetime.start.p0(i64 8, ptr nonnull %2) #6
  call void @llvm.lifetime.start.p0(i64 8, ptr nonnull %3) #6
  call void @SDL_GetOriginalMemoryFunctions_REAL(ptr noundef null, ptr noundef null, ptr noundef nonnull %2, ptr noundef nonnull %3) #6
  %17 = load ptr, ptr %2, align 8
  %18 = call ptr %17(ptr noundef null, i64 noundef 40) #6
  %.not13.not = icmp eq ptr %18, null
  br i1 %.not13.not, label %19, label %20

19:                                               ; preds = %16
  store ptr @SDL_GetStaticErrBuf.SDL_global_error_str, ptr getelementptr inbounds nuw (i8, ptr @SDL_GetStaticErrBuf.SDL_global_error, i64 8), align 8
  store i64 128, ptr getelementptr inbounds nuw (i8, ptr @SDL_GetStaticErrBuf.SDL_global_error, i64 16), align 8
  br label %26

20:                                               ; preds = %16
  call void @llvm.memset.p0.i64(ptr noundef nonnull align 8 dereferenceable(40) %18, i8 0, i64 24, i1 false)
  %21 = load ptr, ptr %2, align 8
  %22 = getelementptr inbounds nuw i8, ptr %18, i64 24
  store ptr %21, ptr %22, align 8
  %23 = load ptr, ptr %3, align 8
  %24 = getelementptr inbounds nuw i8, ptr %18, i64 32
  store ptr %23, ptr %24, align 8
  %25 = call zeroext i1 @SDL_SetTLS_REAL(ptr noundef nonnull @SDL_GetErrBuf.tls_errbuf, ptr noundef nonnull %18, ptr noundef nonnull @SDL_FreeErrBuf)
  br label %26

26:                                               ; preds = %20, %19
  %spec.select = phi ptr [ %18, %20 ], [ @SDL_GetStaticErrBuf.SDL_global_error, %19 ]
  call void @llvm.lifetime.end.p0(i64 8, ptr nonnull %3) #6
  call void @llvm.lifetime.end.p0(i64 8, ptr nonnull %2) #6
  br label %27

27:                                               ; preds = %26, %SDL_GetTLS_REAL.exit
  %.010 = phi ptr [ %.0.i, %SDL_GetTLS_REAL.exit ], [ %spec.select, %26 ]
  ret ptr %.010
}